target datalayout = "e-m:e-p270:32:32-p271:32:32-p272:64:64-i64:64-i128:128-f80:128-n8:16:32:64-S128"
target triple = "x86_64-pc-linux-gnu"

%"struct.Gluco2::SimpSolver::ClauseDeleted" = type { ptr }
%"struct.Gluco2::SimpSolver::ElimLt" = type { ptr }
%"class.Gluco2::vec.0" = type { ptr, i32, i32 }
%"class.Gluco2::SimpSolver" = type <{ %"class.Gluco2::Solver", i32, i32, i32, i32, double, i8, i8, i8, i8, i32, i32, i32, i32, i32, i8, [7 x i8], %"class.Gluco2::vec.5", %"class.Gluco2::vec.4", %"class.Gluco2::OccLists.9", %"class.Gluco2::vec", %"class.Gluco2::Heap.11", %"class.Gluco2::Queue", %"class.Gluco2::vec.4", %"class.Gluco2::vec.4", i32, i32, i32, [4 x i8] }>
%"class.Gluco2::Solver" = type { ptr, i32, ptr, ptr, i32, i8, ptr, i64, %"class.Gluco2::vec", %"class.Gluco2::vec.0", i32, %"class.Gluco2::vec.1", %"class.Gluco2::vec.0", i32, i32, i32, double, double, double, double, i32, i32, i32, i32, i32, i32, double, double, double, double, i32, i32, i8, i8, double, ptr, i8, i64, i64, i64, i64, i64, i64, i64, i64, i64, i64, i64, i64, i64, i64, i64, i64, i64, i64, i64, i64, i64, i64, i32, i8, double, %"class.Gluco2::vec.2", double, %"class.Gluco2::OccLists", %"class.Gluco2::OccLists", %"class.Gluco2::vec.5", %"class.Gluco2::vec.5", %"class.Gluco2::vec.1", %"class.Gluco2::vec.4", %"class.Gluco2::vec.4", %"class.Gluco2::vec.0", %"class.Gluco2::vec", %"class.Gluco2::vec", %"class.Gluco2::vec.6", i32, i32, i64, %"class.Gluco2::vec.0", %"class.Gluco2::Heap", double, i8, %"class.Gluco2::vec.5", %"class.Gluco2::vec.0", %"class.Gluco2::ClauseAllocator", i32, %"class.Gluco2::bqueue", %"class.Gluco2::bqueue", float, i32, %"class.Gluco2::vec.4", %"class.Gluco2::vec.0", %"class.Gluco2::vec.0", %"class.Gluco2::vec.0", i32, double, double, i32, i64, i64, i8, i32, i32, double, double, i32, i32, %"class.Gluco2::vec", %"class.Gluco2::vec", i8, %"class.Gluco2::vec.7", %"class.Gluco2::vec.5", %"class.Gluco2::vec.0", %"class.Gluco2::vec.0", i32, i32, i32, i32, %"class.Gluco2::Heap2", %"class.Gluco2::vec", %"class.Gluco2::vec", i32, %"class.Gluco2::vec", %"class.Gluco2::vec.0" }
%"class.Gluco2::vec.2" = type { ptr, i32, i32 }
%"class.Gluco2::OccLists" = type { %"class.Gluco2::vec.3", %"class.Gluco2::vec.4", %"class.Gluco2::vec.0", %"struct.Gluco2::Solver::WatcherDeleted" }
%"class.Gluco2::vec.3" = type { ptr, i32, i32 }
%"struct.Gluco2::Solver::WatcherDeleted" = type { ptr }
%"class.Gluco2::vec.1" = type { ptr, i32, i32 }
%"class.Gluco2::vec.6" = type { ptr, i32, i32 }
%"class.Gluco2::Heap" = type { %"struct.Gluco2::Solver::VarOrderLt", %"class.Gluco2::vec", %"class.Gluco2::vec" }
%"struct.Gluco2::Solver::VarOrderLt" = type { ptr }
%"class.Gluco2::ClauseAllocator" = type { %"class.Gluco2::RegionAllocator.base", i8, [3 x i8] }
%"class.Gluco2::RegionAllocator.base" = type <{ ptr, i32, i32, i32 }>
%"class.Gluco2::bqueue" = type { %"class.Gluco2::vec.5", i32, i32, i64, i32, i32, i8, double, double }
%"class.Gluco2::vec.7" = type { ptr, i32, i32 }
%"class.Gluco2::Heap2" = type { %"struct.Gluco2::Solver::JustOrderLt2", %"class.Gluco2::vec.8", %"class.Gluco2::vec" }
%"struct.Gluco2::Solver::JustOrderLt2" = type { ptr }
%"class.Gluco2::vec.8" = type { ptr, i32, i32 }
%"class.Gluco2::vec.5" = type { ptr, i32, i32 }
%"class.Gluco2::OccLists.9" = type { %"class.Gluco2::vec.10", %"class.Gluco2::vec.4", %"class.Gluco2::vec", %"struct.Gluco2::SimpSolver::ClauseDeleted" }
%"class.Gluco2::vec.10" = type { ptr, i32, i32 }
%"class.Gluco2::vec" = type { ptr, i32, i32 }
%"class.Gluco2::Heap.11" = type { %"struct.Gluco2::SimpSolver::ElimLt", %"class.Gluco2::vec", %"class.Gluco2::vec" }
%"class.Gluco2::Queue" = type { %"class.Gluco2::vec.5", i32, i32 }
%"class.Gluco2::vec.4" = type { ptr, i32, i32 }

@_ZTVN6Gluco210SimpSolverE = unnamed_addr constant { [6 x ptr] } { [6 x ptr] [ptr null, ptr @_ZTIN6Gluco210SimpSolverE, ptr @_ZN6Gluco210SimpSolverD1Ev, ptr @_ZN6Gluco210SimpSolverD0Ev, ptr @_ZN6Gluco210SimpSolver5resetEv, ptr @_ZN6Gluco210SimpSolver14garbageCollectEv] }, align 8

; Function Attrs: mustprogress nounwind uwtable
define linkonce_odr void @_ZN6Gluco23vecIjE5clearEb(ptr noundef nonnull align 8 dereferenceable(16) %0, i1 noundef zeroext %1) #2 comdat align 2 {
  %3 = alloca ptr, align 8
  %4 = alloca i8, align 1
  %5 = alloca i32, align 4
  store ptr %0, ptr %3, align 8
  %6 = zext i1 %1 to i8
  store i8 %6, ptr %4, align 1
  %7 = load ptr, ptr %3, align 8
  %8 = getelementptr inbounds %"class.Gluco2::vec.5", ptr %7, i32 0, i32 0
  %9 = load ptr, ptr %8, align 8
  %10 = icmp ne ptr %9, null
  br i1 %10, label %11, label %31

11:                                               ; preds = %2
  store i32 0, ptr %5, align 4
  br label %12

12:                                               ; preds = %18, %11
  %13 = load i32, ptr %5, align 4
  %14 = getelementptr inbounds %"class.Gluco2::vec.5", ptr %7, i32 0, i32 1
  %15 = load i32, ptr %14, align 8
  %16 = icmp slt i32 %13, %15
  br i1 %16, label %17, label %21

17:                                               ; preds = %12
  br label %18

18:                                               ; preds = %17
  %19 = load i32, ptr %5, align 4
  %20 = add nsw i32 %19, 1
  store i32 %20, ptr %5, align 4
  br label %12, !llvm.loop !49

21:                                               ; preds = %12
  %22 = getelementptr inbounds %"class.Gluco2::vec.5", ptr %7, i32 0, i32 1
  store i32 0, ptr %22, align 8
  %23 = load i8, ptr %4, align 1
  %24 = trunc i8 %23 to i1
  br i1 %24, label %25, label %30

25:                                               ; preds = %21
  %26 = getelementptr inbounds %"class.Gluco2::vec.5", ptr %7, i32 0, i32 0
  %27 = load ptr, ptr %26, align 8
  call void @free(ptr noundef %27) #3
  %28 = getelementptr inbounds %"class.Gluco2::vec.5", ptr %7, i32 0, i32 0
  store ptr null, ptr %28, align 8
  %29 = getelementptr inbounds %"class.Gluco2::vec.5", ptr %7, i32 0, i32 2
  store i32 0, ptr %29, align 4
  br label %30

30:                                               ; preds = %25, %21
  br label %31

31:                                               ; preds = %30, %2
  ret void
}

; Function Attrs: mustprogress nounwind uwtable
define linkonce_odr void @_ZN6Gluco23vecIiE5clearEb(ptr noundef nonnull align 8 dereferenceable(16) %0, i1 noundef zeroext %1) #2 comdat align 2 {
  %3 = alloca ptr, align 8
  %4 = alloca i8, align 1
  %5 = alloca i32, align 4
  store ptr %0, ptr %3, align 8
  %6 = zext i1 %1 to i8
  store i8 %6, ptr %4, align 1
  %7 = load ptr, ptr %3, align 8
  %8 = getelementptr inbounds %"class.Gluco2::vec", ptr %7, i32 0, i32 0
  %9 = load ptr, ptr %8, align 8
  %10 = icmp ne ptr %9, null
  br i1 %10, label %11, label %31

11:                                               ; preds = %2
  store i32 0, ptr %5, align 4
  br label %12

12:                                               ; preds = %18, %11
  %13 = load i32, ptr %5, align 4
  %14 = getelementptr inbounds %"class.Gluco2::vec", ptr %7, i32 0, i32 1
  %15 = load i32, ptr %14, align 8
  %16 = icmp slt i32 %13, %15
  br i1 %16, label %17, label %21

17:                                               ; preds = %12
  br label %18

18:                                               ; preds = %17
  %19 = load i32, ptr %5, align 4
  %20 = add nsw i32 %19, 1
  store i32 %20, ptr %5, align 4
  br label %12, !llvm.loop !55

21:                                               ; preds = %12
  %22 = getelementptr inbounds %"class.Gluco2::vec", ptr %7, i32 0, i32 1
  store i32 0, ptr %22, align 8
  %23 = load i8, ptr %4, align 1
  %24 = trunc i8 %23 to i1
  br i1 %24, label %25, label %30

25:                                               ; preds = %21
  %26 = getelementptr inbounds %"class.Gluco2::vec", ptr %7, i32 0, i32 0
  %27 = load ptr, ptr %26, align 8
  call void @free(ptr noundef %27) #3
  %28 = getelementptr inbounds %"class.Gluco2::vec", ptr %7, i32 0, i32 0
  store ptr null, ptr %28, align 8
  %29 = getelementptr inbounds %"class.Gluco2::vec", ptr %7, i32 0, i32 2
  store i32 0, ptr %29, align 4
  br label %30

30:                                               ; preds = %25, %21
  br label %31

31:                                               ; preds = %30, %2
  ret void
}

; Function Attrs: noreturn nounwind uwtable
define linkonce_odr hidden void @__clang_call_terminate(ptr noundef %0) #8 comdat {
  %2 = call ptr @__cxa_begin_catch(ptr %0) #3
  call void @_ZSt9terminatev() #14
  unreachable
}

; Function Attrs: mustprogress nounwind uwtable
define linkonce_odr void @_ZN6Gluco23vecIcE5clearEb(ptr noundef nonnull align 8 dereferenceable(16) %0, i1 noundef zeroext %1) #2 comdat align 2 {
  %3 = alloca ptr, align 8
  %4 = alloca i8, align 1
  %5 = alloca i32, align 4
  store ptr %0, ptr %3, align 8
  %6 = zext i1 %1 to i8
  store i8 %6, ptr %4, align 1
  %7 = load ptr, ptr %3, align 8
  %8 = getelementptr inbounds %"class.Gluco2::vec.4", ptr %7, i32 0, i32 0
  %9 = load ptr, ptr %8, align 8
  %10 = icmp ne ptr %9, null
  br i1 %10, label %11, label %31

11:                                               ; preds = %2
  store i32 0, ptr %5, align 4
  br label %12

12:                                               ; preds = %18, %11
  %13 = load i32, ptr %5, align 4
  %14 = getelementptr inbounds %"class.Gluco2::vec.4", ptr %7, i32 0, i32 1
  %15 = load i32, ptr %14, align 8
  %16 = icmp slt i32 %13, %15
  br i1 %16, label %17, label %21

17:                                               ; preds = %12
  br label %18

18:                                               ; preds = %17
  %19 = load i32, ptr %5, align 4
  %20 = add nsw i32 %19, 1
  store i32 %20, ptr %5, align 4
  br label %12, !llvm.loop !54

21:                                               ; preds = %12
  %22 = getelementptr inbounds %"class.Gluco2::vec.4", ptr %7, i32 0, i32 1
  store i32 0, ptr %22, align 8
  %23 = load i8, ptr %4, align 1
  %24 = trunc i8 %23 to i1
  br i1 %24, label %25, label %30

25:                                               ; preds = %21
  %26 = getelementptr inbounds %"class.Gluco2::vec.4", ptr %7, i32 0, i32 0
  %27 = load ptr, ptr %26, align 8
  call void @free(ptr noundef %27) #3
  %28 = getelementptr inbounds %"class.Gluco2::vec.4", ptr %7, i32 0, i32 0
  store ptr null, ptr %28, align 8
  %29 = getelementptr inbounds %"class.Gluco2::vec.4", ptr %7, i32 0, i32 2
  store i32 0, ptr %29, align 4
  br label %30

30:                                               ; preds = %25, %21
  br label %31

31:                                               ; preds = %30, %2
  ret void
}

; Function Attrs: mustprogress nounwind uwtable
define linkonce_odr void @_ZN6Gluco23vecIjED2Ev(ptr noundef nonnull align 8 dereferenceable(16) %0) unnamed_addr #2 comdat align 2 personality ptr @__gxx_personality_v0 {
  %2 = alloca ptr, align 8
  store ptr %0, ptr %2, align 8
  %3 = load ptr, ptr %2, align 8
  invoke void @_ZN6Gluco23vecIjE5clearEb(ptr noundef nonnull align 8 dereferenceable(16) %3, i1 noundef zeroext true)
          to label %4 unwind label %5

4:                                                ; preds = %1
  ret void

5:                                                ; preds = %1
  %6 = landingpad { ptr, i32 }
          catch ptr null
  %7 = extractvalue { ptr, i32 } %6, 0
  call void @__clang_call_terminate(ptr %7) #14
  unreachable
}

; Function Attrs: mustprogress nounwind uwtable
define linkonce_odr void @_ZN6Gluco23vecIiED2Ev(ptr noundef nonnull align 8 dereferenceable(16) %0) unnamed_addr #2 comdat align 2 personality ptr @__gxx_personality_v0 {
  %2 = alloca ptr, align 8
  store ptr %0, ptr %2, align 8
  %3 = load ptr, ptr %2, align 8
  invoke void @_ZN6Gluco23vecIiE5clearEb(ptr noundef nonnull align 8 dereferenceable(16) %3, i1 noundef zeroext true)
          to label %4 unwind label %5

4:                                                ; preds = %1
  ret void

5:                                                ; preds = %1
  %6 = landingpad { ptr, i32 }
          catch ptr null
  %7 = extractvalue { ptr, i32 } %6, 0
  call void @__clang_call_terminate(ptr %7) #14
  unreachable
}

; Function Attrs: mustprogress nounwind uwtable
define linkonce_odr void @_ZN6Gluco24HeapINS_10SimpSolver6ElimLtEED2Ev(ptr noundef nonnull align 8 dereferenceable(40) %0) unnamed_addr #2 comdat align 2 {
  %2 = alloca ptr, align 8
  store ptr %0, ptr %2, align 8
  %3 = load ptr, ptr %2, align 8
  %4 = getelementptr inbounds %"class.Gluco2::Heap.11", ptr %3, i32 0, i32 2
  call void @_ZN6Gluco23vecIiED2Ev(ptr noundef nonnull align 8 dereferenceable(16) %4) #3
  %5 = getelementptr inbounds %"class.Gluco2::Heap.11", ptr %3, i32 0, i32 1
  call void @_ZN6Gluco23vecIiED2Ev(ptr noundef nonnull align 8 dereferenceable(16) %5) #3
  ret void
}

; Function Attrs: mustprogress nounwind uwtable
define linkonce_odr void @_ZN6Gluco25QueueIjED2Ev(ptr noundef nonnull align 8 dereferenceable(24) %0) unnamed_addr #2 comdat align 2 {
  %2 = alloca ptr, align 8
  store ptr %0, ptr %2, align 8
  %3 = load ptr, ptr %2, align 8
  %4 = getelementptr inbounds %"class.Gluco2::Queue", ptr %3, i32 0, i32 0
  call void @_ZN6Gluco23vecIjED2Ev(ptr noundef nonnull align 8 dereferenceable(16) %4) #3
  ret void
}

; Function Attrs: mustprogress nounwind uwtable
define linkonce_odr void @_ZN6Gluco23vecIcED2Ev(ptr noundef nonnull align 8 dereferenceable(16) %0) unnamed_addr #2 comdat align 2 personality ptr @__gxx_personality_v0 {
  %2 = alloca ptr, align 8
  store ptr %0, ptr %2, align 8
  %3 = load ptr, ptr %2, align 8
  invoke void @_ZN6Gluco23vecIcE5clearEb(ptr noundef nonnull align 8 dereferenceable(16) %3, i1 noundef zeroext true)
          to label %4 unwind label %5

4:                                                ; preds = %1
  ret void

5:                                                ; preds = %1
  %6 = landingpad { ptr, i32 }
          catch ptr null
  %7 = extractvalue { ptr, i32 } %6, 0
  call void @__clang_call_terminate(ptr %7) #14
  unreachable
}

; Function Attrs: mustprogress nounwind uwtable
define void @_ZN6Gluco210SimpSolverD2Ev(ptr noundef nonnull align 8 dereferenceable(1684) %0) unnamed_addr #2 align 2 {
  %2 = alloca ptr, align 8
  store ptr %0, ptr %2, align 8
  %3 = load ptr, ptr %2, align 8
  store ptr getelementptr inbounds ({ [6 x ptr] }, ptr @_ZTVN6Gluco210SimpSolverE, i32 0, i32 0, i32 2), ptr %3, align 8
  %4 = getelementptr inbounds %"class.Gluco2::SimpSolver", ptr %3, i32 0, i32 24
  call void @_ZN6Gluco23vecIcED2Ev(ptr noundef nonnull align 8 dereferenceable(16) %4) #3
  %5 = getelementptr inbounds %"class.Gluco2::SimpSolver", ptr %3, i32 0, i32 23
  call void @_ZN6Gluco23vecIcED2Ev(ptr noundef nonnull align 8 dereferenceable(16) %5) #3
  %6 = getelementptr inbounds %"class.Gluco2::SimpSolver", ptr %3, i32 0, i32 22
  call void @_ZN6Gluco25QueueIjED2Ev(ptr noundef nonnull align 8 dereferenceable(24) %6) #3
  %7 = getelementptr inbounds %"class.Gluco2::SimpSolver", ptr %3, i32 0, i32 21
  call void @_ZN6Gluco24HeapINS_10SimpSolver6ElimLtEED2Ev(ptr noundef nonnull align 8 dereferenceable(40) %7) #3
  %8 = getelementptr inbounds %"class.Gluco2::SimpSolver", ptr %3, i32 0, i32 20
  call void @_ZN6Gluco23vecIiED2Ev(ptr noundef nonnull align 8 dereferenceable(16) %8) #3
  %9 = getelementptr inbounds %"class.Gluco2::SimpSolver", ptr %3, i32 0, i32 19
  call void @_ZN6Gluco28OccListsIiNS_3vecIjEENS_10SimpSolver13ClauseDeletedEED2Ev(ptr noundef nonnull align 8 dereferenceable(56) %9) #3
  %10 = getelementptr inbounds %"class.Gluco2::SimpSolver", ptr %3, i32 0, i32 18
  call void @_ZN6Gluco23vecIcED2Ev(ptr noundef nonnull align 8 dereferenceable(16) %10) #3
  %11 = getelementptr inbounds %"class.Gluco2::SimpSolver", ptr %3, i32 0, i32 17
  call void @_ZN6Gluco23vecIjED2Ev(ptr noundef nonnull align 8 dereferenceable(16) %11) #3
  call void @_ZN6Gluco26SolverD2Ev(ptr noundef nonnull align 8 dereferenceable(1416) %3) #3
  ret void
}