; Function Attrs: mustprogress nounwind uwtable
define void @_ZN6Gluco210SimpSolverD2Ev(ptr noundef nonnull align 8 dereferenceable(1684) %0) unnamed_addr #0 align 2 personality ptr @__gxx_personality_v0 {
  store ptr getelementptr inbounds ({ [6 x ptr] }, ptr @_ZTVN6Gluco210SimpSolverE, i64 0, i32 0, i64 2), ptr %0, align 8
  %2 = getelementptr inbounds i8, ptr %0, i64 1656
  %3 = load ptr, ptr %2, align 8
  %.not.i.i = icmp eq ptr %3, null
  br i1 %.not.i.i, label %_ZN6Gluco23vecIcED2Ev.exit, label %.preheader.i.i

.preheader.i.i:                                   ; preds = %1
  %4 = getelementptr inbounds i8, ptr %0, i64 1664
  store i32 0, ptr %4, align 8
  tail call void @free(ptr noundef nonnull %3) #23
  store ptr null, ptr %2, align 8
  %5 = getelementptr inbounds i8, ptr %0, i64 1668
  store i32 0, ptr %5, align 4
  br label %_ZN6Gluco23vecIcED2Ev.exit

_ZN6Gluco23vecIcED2Ev.exit:                       ; preds = %1, %.preheader.i.i
  %6 = getelementptr inbounds i8, ptr %0, i64 1640
  %7 = load ptr, ptr %6, align 8
  %.not.i.i1 = icmp eq ptr %7, null
  br i1 %.not.i.i1, label %_ZN6Gluco23vecIcED2Ev.exit3, label %.preheader.i.i2

.preheader.i.i2:                                  ; preds = %_ZN6Gluco23vecIcED2Ev.exit
  %8 = getelementptr inbounds i8, ptr %0, i64 1648
  store i32 0, ptr %8, align 8
  tail call void @free(ptr noundef nonnull %7) #23
  store ptr null, ptr %6, align 8
  %9 = getelementptr inbounds i8, ptr %0, i64 1652
  store i32 0, ptr %9, align 4
  br label %_ZN6Gluco23vecIcED2Ev.exit3

_ZN6Gluco23vecIcED2Ev.exit3:                      ; preds = %_ZN6Gluco23vecIcED2Ev.exit, %.preheader.i.i2
  %10 = getelementptr inbounds i8, ptr %0, i64 1616
  %11 = load ptr, ptr %10, align 8
  %.not.i.i.i = icmp eq ptr %11, null
  br i1 %.not.i.i.i, label %_ZN6Gluco25QueueIjED2Ev.exit, label %.preheader.i.i.i

.preheader.i.i.i:                                 ; preds = %_ZN6Gluco23vecIcED2Ev.exit3
  %12 = getelementptr inbounds i8, ptr %0, i64 1624
  store i32 0, ptr %12, align 8
  tail call void @free(ptr noundef nonnull %11) #23
  store ptr null, ptr %10, align 8
  %13 = getelementptr inbounds i8, ptr %0, i64 1628
  store i32 0, ptr %13, align 4
  br label %_ZN6Gluco25QueueIjED2Ev.exit

_ZN6Gluco25QueueIjED2Ev.exit:                     ; preds = %_ZN6Gluco23vecIcED2Ev.exit3, %.preheader.i.i.i
  %14 = getelementptr inbounds i8, ptr %0, i64 1600
  %15 = load ptr, ptr %14, align 8
  %.not.i.i.i4 = icmp eq ptr %15, null
  br i1 %.not.i.i.i4, label %_ZN6Gluco23vecIiED2Ev.exit.i, label %.preheader.i.i.i5

.preheader.i.i.i5:                                ; preds = %_ZN6Gluco25QueueIjED2Ev.exit
  %16 = getelementptr inbounds i8, ptr %0, i64 1608
  store i32 0, ptr %16, align 8
  tail call void @free(ptr noundef nonnull %15) #23
  store ptr null, ptr %14, align 8
  %17 = getelementptr inbounds i8, ptr %0, i64 1612
  store i32 0, ptr %17, align 4
  br label %_ZN6Gluco23vecIiED2Ev.exit.i

_ZN6Gluco23vecIiED2Ev.exit.i:                     ; preds = %.preheader.i.i.i5, %_ZN6Gluco25QueueIjED2Ev.exit
  %18 = getelementptr inbounds i8, ptr %0, i64 1584
  %19 = load ptr, ptr %18, align 8
  %.not.i.i1.i = icmp eq ptr %19, null
  br i1 %.not.i.i1.i, label %_ZN6Gluco24HeapINS_10SimpSolver6ElimLtEED2Ev.exit, label %.preheader.i.i2.i

.preheader.i.i2.i:                                ; preds = %_ZN6Gluco23vecIiED2Ev.exit.i
  %20 = getelementptr inbounds i8, ptr %0, i64 1592
  store i32 0, ptr %20, align 8
  tail call void @free(ptr noundef nonnull %19) #23
  store ptr null, ptr %18, align 8
  %21 = getelementptr inbounds i8, ptr %0, i64 1596
  store i32 0, ptr %21, align 4
  br label %_ZN6Gluco24HeapINS_10SimpSolver6ElimLtEED2Ev.exit

_ZN6Gluco24HeapINS_10SimpSolver6ElimLtEED2Ev.exit: ; preds = %_ZN6Gluco23vecIiED2Ev.exit.i, %.preheader.i.i2.i
  %22 = getelementptr inbounds i8, ptr %0, i64 1560
  %23 = load ptr, ptr %22, align 8
  %.not.i.i6 = icmp eq ptr %23, null
  br i1 %.not.i.i6, label %_ZN6Gluco23vecIiED2Ev.exit, label %.preheader.i.i7

.preheader.i.i7:                                  ; preds = %_ZN6Gluco24HeapINS_10SimpSolver6ElimLtEED2Ev.exit
  %24 = getelementptr inbounds i8, ptr %0, i64 1568
  store i32 0, ptr %24, align 8
  tail call void @free(ptr noundef nonnull %23) #23
  store ptr null, ptr %22, align 8
  %25 = getelementptr inbounds i8, ptr %0, i64 1572
  store i32 0, ptr %25, align 4
  br label %_ZN6Gluco23vecIiED2Ev.exit

_ZN6Gluco23vecIiED2Ev.exit:                       ; preds = %_ZN6Gluco24HeapINS_10SimpSolver6ElimLtEED2Ev.exit, %.preheader.i.i7
  %26 = getelementptr inbounds i8, ptr %0, i64 1504
  tail call void @_ZN6Gluco28OccListsIiNS_3vecIjEENS_10SimpSolver13ClauseDeletedEED2Ev(ptr noundef nonnull align 8 dereferenceable(56) %26) #23
  %27 = getelementptr inbounds i8, ptr %0, i64 1488
  %28 = load ptr, ptr %27, align 8
  %.not.i.i8 = icmp eq ptr %28, null
  br i1 %.not.i.i8, label %_ZN6Gluco23vecIcED2Ev.exit10, label %.preheader.i.i9

.preheader.i.i9:                                  ; preds = %_ZN6Gluco23vecIiED2Ev.exit
  %29 = getelementptr inbounds i8, ptr %0, i64 1496
  store i32 0, ptr %29, align 8
  tail call void @free(ptr noundef nonnull %28) #23
  store ptr null, ptr %27, align 8
  %30 = getelementptr inbounds i8, ptr %0, i64 1500
  store i32 0, ptr %30, align 4
  br label %_ZN6Gluco23vecIcED2Ev.exit10

_ZN6Gluco23vecIcED2Ev.exit10:                     ; preds = %_ZN6Gluco23vecIiED2Ev.exit, %.preheader.i.i9
  %31 = getelementptr inbounds i8, ptr %0, i64 1472
  %32 = load ptr, ptr %31, align 8
  %.not.i.i11 = icmp eq ptr %32, null
  br i1 %.not.i.i11, label %_ZN6Gluco23vecIjED2Ev.exit, label %.preheader.i.i12

.preheader.i.i12:                                 ; preds = %_ZN6Gluco23vecIcED2Ev.exit10
  %33 = getelementptr inbounds i8, ptr %0, i64 1480
  store i32 0, ptr %33, align 8
  tail call void @free(ptr noundef nonnull %32) #23
  store ptr null, ptr %31, align 8
  %34 = getelementptr inbounds i8, ptr %0, i64 1484
  store i32 0, ptr %34, align 4
  br label %_ZN6Gluco23vecIjED2Ev.exit

_ZN6Gluco23vecIjED2Ev.exit:                       ; preds = %_ZN6Gluco23vecIcED2Ev.exit10, %.preheader.i.i12
  tail call void @_ZN6Gluco26SolverD2Ev(ptr noundef nonnull align 8 dereferenceable(1416) %0) #23
  ret void
}